target datalayout = "e-m:e-p270:32:32-p271:32:32-p272:64:64-i64:64-i128:128-f80:128-n8:16:32:64-S128"
target triple = "x86_64-pc-linux-gnu"

%"class.pybind11::gil_scoped_acquire" = type <{ ptr, i8, i8, [6 x i8] }>
%"class.std::__shared_count" = type { ptr }
%"class.std::shared_ptr.7" = type { %"class.std::__shared_ptr.8" }
%"class.std::__shared_ptr.8" = type { ptr, %"class.std::__shared_count" }
%class.anon.10 = type { %"class.std::shared_ptr.7" }
%"class.std::_Sp_counted_base" = type { ptr, i32, i32 }

@__libc_single_threaded = external global i8, align 1

; Function Attrs: alwaysinline mustprogress nounwind ssp uwtable
define linkonce_odr noundef i32 @_ZN9__gnu_cxx18__exchange_and_addEPVii(ptr noundef %0, i32 noundef %1) #14 comdat {
  %3 = alloca ptr, align 8
  %4 = alloca i32, align 4
  %5 = alloca i32, align 4
  %6 = alloca i32, align 4
  store ptr %0, ptr %3, align 8, !tbaa !1966
  store i32 %1, ptr %4, align 4, !tbaa !167
  %7 = load ptr, ptr %3, align 8, !tbaa !1966
  %8 = load i32, ptr %4, align 4, !tbaa !167
  store i32 %8, ptr %5, align 4, !tbaa !167
  %9 = load i32, ptr %5, align 4
  %10 = atomicrmw volatile add ptr %7, i32 %9 acq_rel, align 4
  store i32 %10, ptr %6, align 4
  %11 = load i32, ptr %6, align 4, !tbaa !167
  ret i32 %11
}

; Function Attrs: alwaysinline mustprogress nounwind ssp uwtable
define linkonce_odr noundef i32 @_ZN9__gnu_cxx25__exchange_and_add_singleEPii(ptr noundef %0, i32 noundef %1) #14 comdat {
  %3 = alloca ptr, align 8
  %4 = alloca i32, align 4
  %5 = alloca i32, align 4
  store ptr %0, ptr %3, align 8, !tbaa !1966
  store i32 %1, ptr %4, align 4, !tbaa !167
  call void @llvm.lifetime.start.p0(i64 4, ptr %5) #26
  %6 = load ptr, ptr %3, align 8, !tbaa !1966
  %7 = load i32, ptr %6, align 4, !tbaa !167
  store i32 %7, ptr %5, align 4, !tbaa !167
  %8 = load i32, ptr %4, align 4, !tbaa !167
  %9 = load ptr, ptr %3, align 8, !tbaa !1966
  %10 = load i32, ptr %9, align 4, !tbaa !167
  %11 = add nsw i32 %10, %8
  store i32 %11, ptr %9, align 4, !tbaa !167
  %12 = load i32, ptr %5, align 4, !tbaa !167
  call void @llvm.lifetime.end.p0(i64 4, ptr %5) #26
  ret i32 %12
}

; Function Attrs: alwaysinline mustprogress nounwind ssp uwtable
define linkonce_odr noundef zeroext i1 @_ZN9__gnu_cxx20__is_single_threadedEv() #14 comdat {
  %1 = load i8, ptr @__libc_single_threaded, align 1, !tbaa !172
  %2 = icmp ne i8 %1, 0
  ret i1 %2
}

; Function Attrs: noinline noreturn nounwind ssp uwtable
define linkonce_odr hidden void @__clang_call_terminate(ptr noundef %0) #3 comdat {
  %2 = call ptr @__cxa_begin_catch(ptr %0) #26
  call void @_ZSt9terminatev() #32
  unreachable
}

; Function Attrs: alwaysinline mustprogress ssp uwtable
define linkonce_odr noundef i32 @_ZN9__gnu_cxx27__exchange_and_add_dispatchEPii(ptr noundef %0, i32 noundef %1) #17 comdat {
  %3 = alloca i32, align 4
  %4 = alloca ptr, align 8
  %5 = alloca i32, align 4
  store ptr %0, ptr %4, align 8, !tbaa !1966
  store i32 %1, ptr %5, align 4, !tbaa !167
  %6 = call noundef zeroext i1 @_ZN9__gnu_cxx20__is_single_threadedEv() #26
  br i1 %6, label %7, label %11

7:                                                ; preds = %2
  %8 = load ptr, ptr %4, align 8, !tbaa !1966
  %9 = load i32, ptr %5, align 4, !tbaa !167
  %10 = call noundef i32 @_ZN9__gnu_cxx25__exchange_and_add_singleEPii(ptr noundef %8, i32 noundef %9)
  store i32 %10, ptr %3, align 4
  br label %15

11:                                               ; preds = %2
  %12 = load ptr, ptr %4, align 8, !tbaa !1966
  %13 = load i32, ptr %5, align 4, !tbaa !167
  %14 = call noundef i32 @_ZN9__gnu_cxx18__exchange_and_addEPVii(ptr noundef %12, i32 noundef %13)
  store i32 %14, ptr %3, align 4
  br label %15

15:                                               ; preds = %11, %7
  %16 = load i32, ptr %3, align 4
  ret i32 %16
}

; Function Attrs: inlinehint mustprogress nounwind ssp uwtable
define linkonce_odr void @_ZNSt16_Sp_counted_baseILN9__gnu_cxx12_Lock_policyE2EE10_M_releaseEv(ptr noundef nonnull align 8 dereferenceable(16) %0) #0 comdat align 2 personality ptr @__gxx_personality_v0 {
  %2 = alloca ptr, align 8
  %3 = alloca i8, align 1
  %4 = alloca i8, align 1
  %5 = alloca i8, align 1
  %6 = alloca i32, align 4
  %7 = alloca i32, align 4
  %8 = alloca i64, align 8
  %9 = alloca ptr, align 8
  %10 = alloca i64, align 8
  %11 = alloca i32, align 4
  store ptr %0, ptr %2, align 8, !tbaa !477
  %12 = load ptr, ptr %2, align 8
  call void @llvm.lifetime.start.p0(i64 1, ptr %3) #26
  store i8 1, ptr %3, align 1, !tbaa !221
  call void @llvm.lifetime.start.p0(i64 1, ptr %4) #26
  store i8 1, ptr %4, align 1, !tbaa !221
  call void @llvm.lifetime.start.p0(i64 1, ptr %5) #26
  store i8 1, ptr %5, align 1, !tbaa !221
  call void @llvm.lifetime.start.p0(i64 4, ptr %6) #26
  store i32 32, ptr %6, align 4, !tbaa !167
  call void @llvm.lifetime.start.p0(i64 4, ptr %7) #26
  store i32 32, ptr %7, align 4, !tbaa !167
  call void @llvm.lifetime.start.p0(i64 8, ptr %8) #26
  store i64 4294967297, ptr %8, align 8, !tbaa !2836
  call void @llvm.lifetime.start.p0(i64 8, ptr %9) #26
  %13 = getelementptr inbounds nuw %"class.std::_Sp_counted_base", ptr %12, i32 0, i32 1
  store ptr %13, ptr %9, align 8, !tbaa !2838
  %14 = load ptr, ptr %9, align 8, !tbaa !2838
  %15 = load atomic i64, ptr %14 acquire, align 8
  store i64 %15, ptr %10, align 8
  %16 = load i64, ptr %10, align 8, !tbaa !2836
  %17 = icmp eq i64 %16, 4294967297
  br i1 %17, label %18, label %27

18:                                               ; preds = %1
  %19 = getelementptr inbounds nuw %"class.std::_Sp_counted_base", ptr %12, i32 0, i32 1
  store i32 0, ptr %19, align 8, !tbaa !478
  %20 = getelementptr inbounds nuw %"class.std::_Sp_counted_base", ptr %12, i32 0, i32 2
  store i32 0, ptr %20, align 4, !tbaa !480
  %21 = load ptr, ptr %12, align 8, !tbaa !164
  %22 = getelementptr inbounds ptr, ptr %21, i64 2
  %23 = load ptr, ptr %22, align 8
  call void %23(ptr noundef nonnull align 8 dereferenceable(16) %12) #26
  %24 = load ptr, ptr %12, align 8, !tbaa !164
  %25 = getelementptr inbounds ptr, ptr %24, i64 3
  %26 = load ptr, ptr %25, align 8
  call void %26(ptr noundef nonnull align 8 dereferenceable(16) %12) #26
  store i32 1, ptr %11, align 4
  br label %35

27:                                               ; preds = %1
  %28 = getelementptr inbounds nuw %"class.std::_Sp_counted_base", ptr %12, i32 0, i32 1
  %29 = invoke noundef i32 @_ZN9__gnu_cxx27__exchange_and_add_dispatchEPii(ptr noundef %28, i32 noundef -1)
          to label %30 unwind label %41

30:                                               ; preds = %27
  %31 = icmp eq i32 %29, 1
  %32 = call i1 @llvm.expect.i1(i1 %31, i1 false)
  br i1 %32, label %33, label %34

33:                                               ; preds = %30
  call void @_ZNSt16_Sp_counted_baseILN9__gnu_cxx12_Lock_policyE2EE24_M_release_last_use_coldEv(ptr noundef nonnull align 8 dereferenceable(16) %12) #26
  store i32 1, ptr %11, align 4
  br label %35

34:                                               ; preds = %30
  store i32 0, ptr %11, align 4
  br label %35

35:                                               ; preds = %34, %33, %18
  call void @llvm.lifetime.end.p0(i64 8, ptr %9) #26
  call void @llvm.lifetime.end.p0(i64 8, ptr %8) #26
  call void @llvm.lifetime.end.p0(i64 4, ptr %7) #26
  call void @llvm.lifetime.end.p0(i64 4, ptr %6) #26
  %36 = load i32, ptr %11, align 4
  switch i32 %36, label %38 [
    i32 0, label %37
  ]

37:                                               ; preds = %35
  store i32 0, ptr %11, align 4
  br label %38

38:                                               ; preds = %37, %35
  call void @llvm.lifetime.end.p0(i64 1, ptr %5) #26
  call void @llvm.lifetime.end.p0(i64 1, ptr %4) #26
  call void @llvm.lifetime.end.p0(i64 1, ptr %3) #26
  %39 = load i32, ptr %11, align 4
  switch i32 %39, label %44 [
    i32 0, label %40
    i32 1, label %40
  ]

40:                                               ; preds = %38, %38
  ret void

41:                                               ; preds = %27
  %42 = landingpad { ptr, i32 }
          catch ptr null
  %43 = extractvalue { ptr, i32 } %42, 0
  call void @__clang_call_terminate(ptr %43) #32
  unreachable

44:                                               ; preds = %38
  unreachable
}

; Function Attrs: mustprogress nounwind ssp uwtable
define linkonce_odr void @_ZNSt14__shared_countILN9__gnu_cxx12_Lock_policyE2EED2Ev(ptr noundef nonnull align 8 dereferenceable(8) %0) unnamed_addr #5 comdat align 2 {
  %2 = alloca ptr, align 8
  store ptr %0, ptr %2, align 8, !tbaa !456
  %3 = load ptr, ptr %2, align 8
  %4 = getelementptr inbounds nuw %"class.std::__shared_count", ptr %3, i32 0, i32 0
  %5 = load ptr, ptr %4, align 8, !tbaa !459
  %6 = icmp ne ptr %5, null
  br i1 %6, label %7, label %10

7:                                                ; preds = %1
  %8 = getelementptr inbounds nuw %"class.std::__shared_count", ptr %3, i32 0, i32 0
  %9 = load ptr, ptr %8, align 8, !tbaa !459
  call void @_ZNSt16_Sp_counted_baseILN9__gnu_cxx12_Lock_policyE2EE10_M_releaseEv(ptr noundef nonnull align 8 dereferenceable(16) %9) #26
  br label %10

10:                                               ; preds = %7, %1
  ret void
}

; Function Attrs: mustprogress nounwind ssp uwtable
define linkonce_odr void @_ZNSt14__shared_countILN9__gnu_cxx12_Lock_policyE2EE7_M_swapERS2_(ptr noundef nonnull align 8 dereferenceable(8) %0, ptr noundef nonnull align 8 dereferenceable(8) %1) #5 comdat align 2 {
  %3 = alloca ptr, align 8
  %4 = alloca ptr, align 8
  %5 = alloca ptr, align 8
  store ptr %0, ptr %3, align 8, !tbaa !456
  store ptr %1, ptr %4, align 8, !tbaa !456
  %6 = load ptr, ptr %3, align 8
  call void @llvm.lifetime.start.p0(i64 8, ptr %5) #26
  %7 = load ptr, ptr %4, align 8, !tbaa !456
  %8 = getelementptr inbounds nuw %"class.std::__shared_count", ptr %7, i32 0, i32 0
  %9 = load ptr, ptr %8, align 8, !tbaa !459
  store ptr %9, ptr %5, align 8, !tbaa !477
  %10 = getelementptr inbounds nuw %"class.std::__shared_count", ptr %6, i32 0, i32 0
  %11 = load ptr, ptr %10, align 8, !tbaa !459
  %12 = load ptr, ptr %4, align 8, !tbaa !456
  %13 = getelementptr inbounds nuw %"class.std::__shared_count", ptr %12, i32 0, i32 0
  store ptr %11, ptr %13, align 8, !tbaa !459
  %14 = load ptr, ptr %5, align 8, !tbaa !477
  %15 = getelementptr inbounds nuw %"class.std::__shared_count", ptr %6, i32 0, i32 0
  store ptr %14, ptr %15, align 8, !tbaa !459
  call void @llvm.lifetime.end.p0(i64 8, ptr %5) #26
  ret void
}

; Function Attrs: inlinehint mustprogress nounwind ssp uwtable
define linkonce_odr hidden void @_ZSt4swapIPN8pybind115arrayEENSt9enable_ifIXsr6__and_ISt6__not_ISt15__is_tuple_likeIT_EESt21is_move_constructibleIS6_ESt18is_move_assignableIS6_EEE5valueEvE4typeERS6_SF_(ptr noundef nonnull align 8 dereferenceable(8) %0, ptr noundef nonnull align 8 dereferenceable(8) %1) #0 comdat {
  %3 = alloca ptr, align 8
  %4 = alloca ptr, align 8
  %5 = alloca ptr, align 8
  store ptr %0, ptr %3, align 8, !tbaa !3861
  store ptr %1, ptr %4, align 8, !tbaa !3861
  call void @llvm.lifetime.start.p0(i64 8, ptr %5) #26
  %6 = load ptr, ptr %3, align 8, !tbaa !3861
  %7 = load ptr, ptr %6, align 8, !tbaa !211
  store ptr %7, ptr %5, align 8, !tbaa !211
  %8 = load ptr, ptr %4, align 8, !tbaa !3861
  %9 = load ptr, ptr %8, align 8, !tbaa !211
  %10 = load ptr, ptr %3, align 8, !tbaa !3861
  store ptr %9, ptr %10, align 8, !tbaa !211
  %11 = load ptr, ptr %5, align 8, !tbaa !211
  %12 = load ptr, ptr %4, align 8, !tbaa !3861
  store ptr %11, ptr %12, align 8, !tbaa !211
  call void @llvm.lifetime.end.p0(i64 8, ptr %5) #26
  ret void
}

; Function Attrs: mustprogress nounwind ssp uwtable
define linkonce_odr void @_ZNSt14__shared_countILN9__gnu_cxx12_Lock_policyE2EEC2Ev(ptr noundef nonnull align 8 dereferenceable(8) %0) unnamed_addr #5 comdat align 2 {
  %2 = alloca ptr, align 8
  store ptr %0, ptr %2, align 8, !tbaa !456
  %3 = load ptr, ptr %2, align 8
  %4 = getelementptr inbounds nuw %"class.std::__shared_count", ptr %3, i32 0, i32 0
  store ptr null, ptr %4, align 8, !tbaa !459
  ret void
}

; Function Attrs: mustprogress nounwind ssp uwtable
define linkonce_odr hidden void @_ZNSt12__shared_ptrIN8pybind115arrayELN9__gnu_cxx12_Lock_policyE2EED2Ev(ptr noundef nonnull align 8 dereferenceable(16) %0) unnamed_addr #5 comdat align 2 {
  %2 = alloca ptr, align 8
  store ptr %0, ptr %2, align 8, !tbaa !2832
  %3 = load ptr, ptr %2, align 8
  %4 = getelementptr inbounds nuw %"class.std::__shared_ptr.8", ptr %3, i32 0, i32 1
  call void @_ZNSt14__shared_countILN9__gnu_cxx12_Lock_policyE2EED2Ev(ptr noundef nonnull align 8 dereferenceable(8) %4) #26
  ret void
}

; Function Attrs: mustprogress nounwind ssp uwtable
define linkonce_odr hidden void @_ZNSt12__shared_ptrIN8pybind115arrayELN9__gnu_cxx12_Lock_policyE2EE4swapERS4_(ptr noundef nonnull align 8 dereferenceable(16) %0, ptr noundef nonnull align 8 dereferenceable(16) %1) #5 comdat align 2 !type !3893 {
  %3 = alloca ptr, align 8
  %4 = alloca ptr, align 8
  store ptr %0, ptr %3, align 8, !tbaa !2832
  store ptr %1, ptr %4, align 8, !tbaa !2832
  %5 = load ptr, ptr %3, align 8
  %6 = getelementptr inbounds nuw %"class.std::__shared_ptr.8", ptr %5, i32 0, i32 0
  %7 = load ptr, ptr %4, align 8, !tbaa !2832
  %8 = getelementptr inbounds nuw %"class.std::__shared_ptr.8", ptr %7, i32 0, i32 0
  call void @_ZSt4swapIPN8pybind115arrayEENSt9enable_ifIXsr6__and_ISt6__not_ISt15__is_tuple_likeIT_EESt21is_move_constructibleIS6_ESt18is_move_assignableIS6_EEE5valueEvE4typeERS6_SF_(ptr noundef nonnull align 8 dereferenceable(8) %6, ptr noundef nonnull align 8 dereferenceable(8) %8) #26
  %9 = getelementptr inbounds nuw %"class.std::__shared_ptr.8", ptr %5, i32 0, i32 1
  %10 = load ptr, ptr %4, align 8, !tbaa !2832
  %11 = getelementptr inbounds nuw %"class.std::__shared_ptr.8", ptr %10, i32 0, i32 1
  call void @_ZNSt14__shared_countILN9__gnu_cxx12_Lock_policyE2EE7_M_swapERS2_(ptr noundef nonnull align 8 dereferenceable(8) %9, ptr noundef nonnull align 8 dereferenceable(8) %11) #26
  ret void
}

; Function Attrs: mustprogress nounwind ssp uwtable
define linkonce_odr hidden void @_ZNSt12__shared_ptrIN8pybind115arrayELN9__gnu_cxx12_Lock_policyE2EEC2Ev(ptr noundef nonnull align 8 dereferenceable(16) %0) unnamed_addr #5 comdat align 2 {
  %2 = alloca ptr, align 8
  store ptr %0, ptr %2, align 8, !tbaa !2832
  %3 = load ptr, ptr %2, align 8
  %4 = getelementptr inbounds nuw %"class.std::__shared_ptr.8", ptr %3, i32 0, i32 0
  store ptr null, ptr %4, align 8, !tbaa !2834
  %5 = getelementptr inbounds nuw %"class.std::__shared_ptr.8", ptr %3, i32 0, i32 1
  call void @_ZNSt14__shared_countILN9__gnu_cxx12_Lock_policyE2EEC2Ev(ptr noundef nonnull align 8 dereferenceable(8) %5) #26
  ret void
}

; Function Attrs: mustprogress nounwind ssp uwtable
define linkonce_odr hidden void @_ZNSt12__shared_ptrIN8pybind115arrayELN9__gnu_cxx12_Lock_policyE2EE5resetEv(ptr noundef nonnull align 8 dereferenceable(16) %0) #5 comdat align 2 !type !3892 {
  %2 = alloca ptr, align 8
  %3 = alloca %"class.std::__shared_ptr.8", align 8
  store ptr %0, ptr %2, align 8, !tbaa !2832
  %4 = load ptr, ptr %2, align 8
  call void @llvm.lifetime.start.p0(i64 16, ptr %3) #26
  call void @_ZNSt12__shared_ptrIN8pybind115arrayELN9__gnu_cxx12_Lock_policyE2EEC2Ev(ptr noundef nonnull align 8 dereferenceable(16) %3) #26
  call void @_ZNSt12__shared_ptrIN8pybind115arrayELN9__gnu_cxx12_Lock_policyE2EE4swapERS4_(ptr noundef nonnull align 8 dereferenceable(16) %3, ptr noundef nonnull align 8 dereferenceable(16) %4) #26
  call void @_ZNSt12__shared_ptrIN8pybind115arrayELN9__gnu_cxx12_Lock_policyE2EED2Ev(ptr noundef nonnull align 8 dereferenceable(16) %3) #26
  call void @llvm.lifetime.end.p0(i64 16, ptr %3) #26
  ret void
}

; Function Attrs: inlinehint mustprogress ssp uwtable
define internal void @"_ZZN6open3d4core15PyArrayToTensorEN8pybind115arrayEbEN3$_0clEPv"(ptr noundef nonnull align 8 dereferenceable(16) %0, ptr noundef %1) #8 align 2 !type !3890 {
  %3 = alloca ptr, align 8
  %4 = alloca ptr, align 8
  %5 = alloca %"class.pybind11::gil_scoped_acquire", align 8
  store ptr %0, ptr %3, align 8, !tbaa !192
  store ptr %1, ptr %4, align 8, !tbaa !192
  %6 = load ptr, ptr %3, align 8
  call void @llvm.lifetime.start.p0(i64 16, ptr %5) #26
  call void @_ZN8pybind1118gil_scoped_acquireC2Ev(ptr noundef nonnull align 8 dereferenceable(10) %5)
  %7 = getelementptr inbounds nuw %class.anon.10, ptr %6, i32 0, i32 0
  call void @_ZNSt12__shared_ptrIN8pybind115arrayELN9__gnu_cxx12_Lock_policyE2EE5resetEv(ptr noundef nonnull align 8 dereferenceable(16) %7) #26
  call void @_ZN8pybind1118gil_scoped_acquireD2Ev(ptr noundef nonnull align 8 dereferenceable(10) %5) #26
  call void @llvm.lifetime.end.p0(i64 16, ptr %5) #26
  ret void
}

; Function Attrs: mustprogress nounwind ssp uwtable
define linkonce_odr noundef ptr @_ZNKSt9_Any_data9_M_accessEv(ptr noundef nonnull align 8 dereferenceable(16) %0) #5 comdat align 2 {
  %2 = alloca ptr, align 8
  store ptr %0, ptr %2, align 8, !tbaa !3886
  %3 = load ptr, ptr %2, align 8
  %4 = getelementptr inbounds [16 x i8], ptr %3, i64 0, i64 0
  ret ptr %4
}

; Function Attrs: mustprogress ssp uwtable
define internal void @"_ZSt13__invoke_implIvRZN6open3d4core15PyArrayToTensorEN8pybind115arrayEbE3$_0JPvEET_St14__invoke_otherOT0_DpOT1_"(ptr noundef nonnull align 8 dereferenceable(16) %0, ptr noundef nonnull align 8 dereferenceable(8) %1) #4 {
  %3 = alloca ptr, align 8
  %4 = alloca ptr, align 8
  store ptr %0, ptr %3, align 8, !tbaa !192
  store ptr %1, ptr %4, align 8, !tbaa !258
  %5 = load ptr, ptr %3, align 8, !tbaa !192
  %6 = load ptr, ptr %4, align 8, !tbaa !258
  %7 = load ptr, ptr %6, align 8, !tbaa !192
  call void @"_ZZN6open3d4core15PyArrayToTensorEN8pybind115arrayEbEN3$_0clEPv"(ptr noundef nonnull align 8 dereferenceable(16) %5, ptr noundef %7)
  ret void
}

; Function Attrs: mustprogress nounwind ssp uwtable
define internal noundef nonnull align 8 dereferenceable(8) ptr @"_ZNKSt9_Any_data9_M_accessIPZN6open3d4core15PyArrayToTensorEN8pybind115arrayEbE3$_0EERKT_v"(ptr noundef nonnull align 8 dereferenceable(16) %0) #5 align 2 {
  %2 = alloca ptr, align 8
  store ptr %0, ptr %2, align 8, !tbaa !3886
  %3 = load ptr, ptr %2, align 8
  %4 = call noundef ptr @_ZNKSt9_Any_data9_M_accessEv(ptr noundef nonnull align 8 dereferenceable(16) %3) #26
  ret ptr %4
}

; Function Attrs: mustprogress ssp uwtable
define internal void @"_ZSt10__invoke_rIvRZN6open3d4core15PyArrayToTensorEN8pybind115arrayEbE3$_0JPvEENSt9enable_ifIX16is_invocable_r_vIT_T0_DpT1_EES8_E4typeEOS9_DpOSA_"(ptr noundef nonnull align 8 dereferenceable(16) %0, ptr noundef nonnull align 8 dereferenceable(8) %1) #4 {
  %3 = alloca ptr, align 8
  %4 = alloca ptr, align 8
  store ptr %0, ptr %3, align 8, !tbaa !192
  store ptr %1, ptr %4, align 8, !tbaa !258
  %5 = load ptr, ptr %3, align 8, !tbaa !192
  %6 = load ptr, ptr %4, align 8, !tbaa !258
  call void @"_ZSt13__invoke_implIvRZN6open3d4core15PyArrayToTensorEN8pybind115arrayEbE3$_0JPvEET_St14__invoke_otherOT0_DpOT1_"(ptr noundef nonnull align 8 dereferenceable(16) %5, ptr noundef nonnull align 8 dereferenceable(8) %6)
  ret void
}

; Function Attrs: mustprogress nounwind ssp uwtable
define internal noundef ptr @"_ZNSt14_Function_base13_Base_managerIZN6open3d4core15PyArrayToTensorEN8pybind115arrayEbE3$_0E14_M_get_pointerERKSt9_Any_data"(ptr noundef nonnull align 8 dereferenceable(16) %0) #5 align 2 {
  %2 = alloca ptr, align 8
  store ptr %0, ptr %2, align 8, !tbaa !3886
  %3 = load ptr, ptr %2, align 8, !tbaa !3886
  %4 = call noundef nonnull align 8 dereferenceable(8) ptr @"_ZNKSt9_Any_data9_M_accessIPZN6open3d4core15PyArrayToTensorEN8pybind115arrayEbE3$_0EERKT_v"(ptr noundef nonnull align 8 dereferenceable(16) %3) #26
  %5 = load ptr, ptr %4, align 8, !tbaa !192
  ret ptr %5
}

; Function Attrs: mustprogress ssp uwtable
define internal void @"_ZNSt17_Function_handlerIFvPvEZN6open3d4core15PyArrayToTensorEN8pybind115arrayEbE3$_0E9_M_invokeERKSt9_Any_dataOS0_"(ptr noundef nonnull align 8 dereferenceable(16) %0, ptr noundef nonnull align 8 dereferenceable(8) %1) #4 align 2 {
  %3 = alloca ptr, align 8
  %4 = alloca ptr, align 8
  store ptr %0, ptr %3, align 8, !tbaa !3886
  store ptr %1, ptr %4, align 8, !tbaa !258
  %5 = load ptr, ptr %3, align 8, !tbaa !3886
  %6 = call noundef ptr @"_ZNSt14_Function_base13_Base_managerIZN6open3d4core15PyArrayToTensorEN8pybind115arrayEbE3$_0E14_M_get_pointerERKSt9_Any_data"(ptr noundef nonnull align 8 dereferenceable(16) %5) #26
  %7 = load ptr, ptr %4, align 8, !tbaa !258
  call void @"_ZSt10__invoke_rIvRZN6open3d4core15PyArrayToTensorEN8pybind115arrayEbE3$_0JPvEENSt9enable_ifIX16is_invocable_r_vIT_T0_DpT1_EES8_E4typeEOS9_DpOSA_"(ptr noundef nonnull align 8 dereferenceable(16) %6, ptr noundef nonnull align 8 dereferenceable(8) %7)
  ret void
}