; Function Attrs: mustprogress ssp uwtable
define internal void @"_ZNSt17_Function_handlerIFvPvEZN6open3d4core15PyArrayToTensorEN8pybind115arrayEbE3$_0E9_M_invokeERKSt9_Any_dataOS0_"(ptr noundef nonnull readonly align 8 captures(none) dereferenceable(16) %0, ptr nonnull readnone align 8 captures(none) %1) #5 align 2 personality ptr @__gxx_personality_v0 {
  %3 = alloca %"class.pybind11::gil_scoped_acquire", align 8
  %.val = load ptr, ptr %0, align 8, !tbaa !219
  call void @llvm.lifetime.start.p0(i64 16, ptr nonnull %3) #33
  call void @_ZN8pybind1118gil_scoped_acquireC2Ev(ptr noundef nonnull align 8 dereferenceable(10) %3)
  store ptr null, ptr %.val, align 8, !tbaa !215
  %4 = getelementptr inbounds nuw i8, ptr %.val, i64 8
  %5 = load ptr, ptr %4, align 8, !tbaa !148
  store ptr null, ptr %4, align 8, !tbaa !148
  %.not.i.i.i.i.i.i = icmp eq ptr %5, null
  br i1 %.not.i.i.i.i.i.i, label %"_ZSt10__invoke_rIvRZN6open3d4core15PyArrayToTensorEN8pybind115arrayEbE3$_0JPvEENSt9enable_ifIX16is_invocable_r_vIT_T0_DpT1_EES8_E4typeEOS9_DpOSA_.exit", label %6

6:                                                ; preds = %2
  %7 = getelementptr inbounds nuw i8, ptr %5, i64 8
  %8 = load atomic i64, ptr %7 acquire, align 8
  %9 = icmp eq i64 %8, 4294967297
  %10 = trunc i64 %8 to i32
  br i1 %9, label %11, label %19

11:                                               ; preds = %6
  store i32 0, ptr %7, align 8, !tbaa !212
  %12 = getelementptr inbounds nuw i8, ptr %5, i64 12
  store i32 0, ptr %12, align 4, !tbaa !214
  %13 = load ptr, ptr %5, align 8, !tbaa !135
  %14 = getelementptr inbounds nuw i8, ptr %13, i64 16
  %15 = load ptr, ptr %14, align 8
  call void %15(ptr noundef nonnull align 8 dereferenceable(16) %5) #33
  %16 = load ptr, ptr %5, align 8, !tbaa !135
  %17 = getelementptr inbounds nuw i8, ptr %16, i64 24
  %18 = load ptr, ptr %17, align 8
  call void %18(ptr noundef nonnull align 8 dereferenceable(16) %5) #33
  br label %"_ZSt10__invoke_rIvRZN6open3d4core15PyArrayToTensorEN8pybind115arrayEbE3$_0JPvEENSt9enable_ifIX16is_invocable_r_vIT_T0_DpT1_EES8_E4typeEOS9_DpOSA_.exit"

19:                                               ; preds = %6
  %20 = load i8, ptr @__libc_single_threaded, align 1, !tbaa !134
  %.not.i.i.i.i.i.i.i = icmp eq i8 %20, 0
  br i1 %.not.i.i.i.i.i.i.i, label %23, label %21

21:                                               ; preds = %19
  %22 = add nsw i32 %10, -1
  store i32 %22, ptr %7, align 4, !tbaa !149
  br label %_ZN9__gnu_cxx27__exchange_and_add_dispatchEPii.exit.i.i.i.i.i.i.i

23:                                               ; preds = %19
  %24 = atomicrmw volatile add ptr %7, i32 -1 acq_rel, align 4
  br label %_ZN9__gnu_cxx27__exchange_and_add_dispatchEPii.exit.i.i.i.i.i.i.i

_ZN9__gnu_cxx27__exchange_and_add_dispatchEPii.exit.i.i.i.i.i.i.i: ; preds = %23, %21
  %.0.i.i.i.i.i.i.i.i = phi i32 [ %10, %21 ], [ %24, %23 ]
  %25 = icmp eq i32 %.0.i.i.i.i.i.i.i.i, 1
  br i1 %25, label %26, label %"_ZSt10__invoke_rIvRZN6open3d4core15PyArrayToTensorEN8pybind115arrayEbE3$_0JPvEENSt9enable_ifIX16is_invocable_r_vIT_T0_DpT1_EES8_E4typeEOS9_DpOSA_.exit", !prof !153

26:                                               ; preds = %_ZN9__gnu_cxx27__exchange_and_add_dispatchEPii.exit.i.i.i.i.i.i.i
  call void @_ZNSt16_Sp_counted_baseILN9__gnu_cxx12_Lock_policyE2EE24_M_release_last_use_coldEv(ptr noundef nonnull align 8 dereferenceable(16) %5) #33
  br label %"_ZSt10__invoke_rIvRZN6open3d4core15PyArrayToTensorEN8pybind115arrayEbE3$_0JPvEENSt9enable_ifIX16is_invocable_r_vIT_T0_DpT1_EES8_E4typeEOS9_DpOSA_.exit"

"_ZSt10__invoke_rIvRZN6open3d4core15PyArrayToTensorEN8pybind115arrayEbE3$_0JPvEENSt9enable_ifIX16is_invocable_r_vIT_T0_DpT1_EES8_E4typeEOS9_DpOSA_.exit": ; preds = %2, %11, %_ZN9__gnu_cxx27__exchange_and_add_dispatchEPii.exit.i.i.i.i.i.i.i, %26
  call void @_ZN8pybind1118gil_scoped_acquireD2Ev(ptr noundef nonnull align 8 dereferenceable(10) %3) #33
  call void @llvm.lifetime.end.p0(i64 16, ptr nonnull %3) #33
  ret void
}